; Function Attrs: nounwind uwtable
define noalias noundef ptr @Pla_GenRandom(i32 noundef %0, i32 noundef %1, i32 noundef %2) local_unnamed_addr #0 {
  %4 = shl nuw i32 1, %0
  %5 = ashr i32 %4, 5
  %6 = icmp ult i32 %0, 5
  %7 = zext i1 %6 to i32
  %8 = add nsw i32 %5, %7
  %9 = tail call noalias dereferenceable_or_null(16) ptr @malloc(i64 noundef 16) #19
  %10 = shl nsw i32 %8, 5
  store i32 %10, ptr %9, align 8, !tbaa !8
  %.not.i.i = icmp eq i32 %8, 0
  br i1 %.not.i.i, label %Vec_BitStart.exit, label %11

11:                                               ; preds = %3
  %12 = sext i32 %8 to i64
  %13 = shl nsw i64 %12, 2
  %14 = tail call noalias ptr @malloc(i64 noundef %13) #19
  br label %Vec_BitStart.exit

Vec_BitStart.exit:                                ; preds = %3, %11
  %.pre-phi8.i = phi i64 [ %13, %11 ], [ 0, %3 ]
  %15 = phi ptr [ %14, %11 ], [ null, %3 ]
  %16 = getelementptr inbounds nuw i8, ptr %9, i64 4
  %17 = getelementptr inbounds nuw i8, ptr %9, i64 8
  store ptr %15, ptr %17, align 8, !tbaa !15
  store i32 %10, ptr %16, align 4, !tbaa !16
  tail call void @llvm.memset.p0.i64(ptr align 4 %15, i8 0, i64 %.pre-phi8.i, i1 false)
  %18 = icmp sgt i32 %1, 0
  br i1 %18, label %.lr.ph.lr.ph, label %.outer._crit_edge

.lr.ph.lr.ph:                                     ; preds = %Vec_BitStart.exit
  %19 = add nsw i32 %4, -1
  %.not = icmp eq i32 %2, 0
  %invariant.op = and i32 %19, 31
  br i1 %.not, label %.backedge.us.us.preheader, label %.lr.ph.split.split.us.us.preheader

.lr.ph.split.split.us.us.preheader:               ; preds = %.lr.ph.lr.ph, %.split.us33
  %.0.ph28.us = phi i32 [ %23, %.split.us33 ], [ 0, %.lr.ph.lr.ph ]
  br label %.lr.ph.split.split.us.us

.split.us33:                                      ; preds = %27
  %20 = getelementptr inbounds nuw i32, ptr %15, i64 %29
  %21 = shl nuw i32 1, %32
  %22 = or i32 %31, %21
  store i32 %22, ptr %20, align 4, !tbaa !17
  %23 = add nuw nsw i32 %.0.ph28.us, 1
  %exitcond.not = icmp eq i32 %23, %1
  br i1 %exitcond.not, label %.outer._crit_edge, label %.lr.ph.split.split.us.us.preheader, !llvm.loop !47

.lr.ph.split.split.us.us:                         ; preds = %.lr.ph.split.split.us.us.backedge, %.lr.ph.split.split.us.us.preheader
  %24 = tail call i32 @Gia_ManRandom(i32 noundef 0) #18
  %25 = and i32 %24, %19
  %26 = icmp eq i32 %25, 0
  br i1 %26, label %.lr.ph.split.split.us.us.backedge, label %27

27:                                               ; preds = %.lr.ph.split.split.us.us
  %28 = lshr i32 %25, 5
  %29 = zext nneg i32 %28 to i64
  %30 = getelementptr inbounds nuw i32, ptr %15, i64 %29
  %31 = load i32, ptr %30, align 4, !tbaa !17
  %32 = and i32 %25, 31
  %33 = shl nuw i32 1, %32
  %34 = and i32 %31, %33
  %.not.us17.us = icmp eq i32 %34, 0
  br i1 %.not.us17.us, label %.split.us33, label %.lr.ph.split.split.us.us.backedge

.lr.ph.split.split.us.us.backedge:                ; preds = %27, %.lr.ph.split.split.us.us
  br label %.lr.ph.split.split.us.us

.backedge.us.us.preheader:                        ; preds = %.lr.ph.lr.ph, %.split.us
  %.0.ph28 = phi i32 [ %46, %.split.us ], [ 0, %.lr.ph.lr.ph ]
  br label %.backedge.us.us

.backedge.us.us:                                  ; preds = %.backedge.us.us.preheader, %.backedge.us.us
  %35 = tail call i32 @Gia_ManRandom(i32 noundef 0) #18
  %36 = and i32 %35, %19
  %37 = lshr i32 %36, 5
  %38 = zext nneg i32 %37 to i64
  %39 = getelementptr inbounds nuw i32, ptr %15, i64 %38
  %40 = load i32, ptr %39, align 4, !tbaa !17
  %.reass.us = and i32 %35, %invariant.op
  %41 = shl nuw i32 1, %.reass.us
  %42 = and i32 %40, %41
  %.not.us.us = icmp eq i32 %42, 0
  br i1 %.not.us.us, label %.split.us, label %.backedge.us.us

.split.us:                                        ; preds = %.backedge.us.us
  %43 = getelementptr inbounds nuw i32, ptr %15, i64 %38
  %44 = shl nuw i32 1, %.reass.us
  %45 = or i32 %40, %44
  store i32 %45, ptr %43, align 4, !tbaa !17
  %46 = add nuw nsw i32 %.0.ph28, 1
  %exitcond39.not = icmp eq i32 %46, %1
  br i1 %exitcond39.not, label %.outer._crit_edge, label %.backedge.us.us.preheader, !llvm.loop !47

.outer._crit_edge:                                ; preds = %.split.us33, %.split.us, %Vec_BitStart.exit
  ret ptr %9
}